target datalayout = "e-m:e-p270:32:32-p271:32:32-p272:64:64-i64:64-i128:128-f80:128-n8:16:32:64-S128"
target triple = "x86_64-pc-linux-gnu"

; Function Attrs: nounwind null_pointer_is_valid sspstrong uwtable
define internal zeroext i1 @ace_cond_token_has_data(i8 noundef zeroext %0) #4 {
  %2 = alloca i1, align 1
  %3 = alloca i8, align 1
  store i8 %0, ptr %3, align 1
  %4 = load i8, ptr %3, align 1
  %5 = zext i8 %4 to i32
  switch i32 %5, label %7 [
    i32 1, label %6
    i32 2, label %6
    i32 3, label %6
    i32 4, label %6
    i32 16, label %6
    i32 24, label %6
    i32 80, label %6
    i32 81, label %6
    i32 248, label %6
    i32 249, label %6
    i32 250, label %6
    i32 251, label %6
  ]

6:                                                ; preds = %1, %1, %1, %1, %1, %1, %1, %1, %1, %1, %1, %1
  store i1 true, ptr %2, align 1
  br label %8

7:                                                ; preds = %1
  store i1 false, ptr %2, align 1
  br label %8

8:                                                ; preds = %7, %6
  %9 = load i1, ptr %2, align 1
  ret i1 %9
}