; Function Attrs: mustprogress nofree norecurse nosync nounwind null_pointer_is_valid sspstrong willreturn memory(none) uwtable
define internal fastcc noundef zeroext i1 @ace_cond_token_has_data(i8 noundef zeroext %0) unnamed_addr #6 {
  switch i8 %0, label %2 [
    i8 1, label %3
    i8 2, label %3
    i8 3, label %3
    i8 4, label %3
    i8 16, label %3
    i8 24, label %3
    i8 80, label %3
    i8 81, label %3
    i8 -8, label %3
    i8 -7, label %3
    i8 -6, label %3
    i8 -5, label %3
  ]

2:                                                ; preds = %1
  br label %3

3:                                                ; preds = %1, %1, %1, %1, %1, %1, %1, %1, %1, %1, %1, %1, %2
  %.0 = phi i1 [ false, %2 ], [ true, %1 ], [ true, %1 ], [ true, %1 ], [ true, %1 ], [ true, %1 ], [ true, %1 ], [ true, %1 ], [ true, %1 ], [ true, %1 ], [ true, %1 ], [ true, %1 ], [ true, %1 ]
  ret i1 %.0
}